; Function Attrs: mustprogress nounwind uwtable
define void @_ZN10open_spiel6ThreadD2Ev(ptr nocapture noundef nonnull align 8 dereferenceable(8) %0) unnamed_addr #3 align 2 {
  %2 = load ptr, ptr %0, align 8
  %.not.i = icmp eq ptr %2, null
  br i1 %.not.i, label %_ZNSt10unique_ptrIN10open_spiel6Thread10ThreadImplESt14default_deleteIS2_EED2Ev.exit, label %3

3:                                                ; preds = %1
  %.sroa.0.0.copyload.i.i.i.i.i = load i64, ptr %2, align 8
  %.not.i.i.i.i = icmp eq i64 %.sroa.0.0.copyload.i.i.i.i.i, 0
  br i1 %.not.i.i.i.i, label %_ZNKSt14default_deleteIN10open_spiel6Thread10ThreadImplEEclEPS2_.exit.i, label %4

4:                                                ; preds = %3
  tail call void @_ZSt9terminatev() #13
  unreachable

_ZNKSt14default_deleteIN10open_spiel6Thread10ThreadImplEEclEPS2_.exit.i: ; preds = %3
  tail call void @_ZdlPvm(ptr noundef nonnull %2, i64 noundef 8) #12
  br label %_ZNSt10unique_ptrIN10open_spiel6Thread10ThreadImplESt14default_deleteIS2_EED2Ev.exit

_ZNSt10unique_ptrIN10open_spiel6Thread10ThreadImplESt14default_deleteIS2_EED2Ev.exit: ; preds = %1, %_ZNKSt14default_deleteIN10open_spiel6Thread10ThreadImplEEclEPS2_.exit.i
  store ptr null, ptr %0, align 8
  ret void
}